; Function Attrs: mustprogress uwtable
define noundef nonnull align 8 dereferenceable(200) ptr @_ZN6icu_7510UnicodeSet10complementEii(ptr noundef nonnull returned align 8 dereferenceable(200) %this, i32 noundef %start, i32 noundef %end) unnamed_addr #1 align 2 {
entry:
  %range = alloca [3 x i32], align 4
  %bmpSet.i = getelementptr inbounds i8, ptr %this, i64 40
  %0 = load ptr, ptr %bmpSet.i, align 8
  %cmp.not.i = icmp eq ptr %0, null
  %stringSpan.i = getelementptr inbounds i8, ptr %this, i64 88
  %1 = load ptr, ptr %stringSpan.i, align 8
  %cmp2.i = icmp eq ptr %1, null
  %narrow.i.not = select i1 %cmp.not.i, i1 %cmp2.i, i1 false
  br i1 %narrow.i.not, label %lor.lhs.false, label %return

lor.lhs.false:                                    ; preds = %entry
  %fFlags.i = getelementptr inbounds i8, ptr %this, i64 32
  %2 = load i8, ptr %fFlags.i, align 8
  %3 = and i8 %2, 1
  %tobool3.not = icmp eq i8 %3, 0
  br i1 %tobool3.not, label %if.end, label %return

if.end:                                           ; preds = %lor.lhs.false
  %cmp.i = icmp sgt i32 %start, -1
  %spec.select9 = tail call i32 @llvm.umin.i32(i32 %start, i32 1114111)
  %cmp.i1 = icmp slt i32 %end, 0
  %spec.select11 = tail call i32 @llvm.umin.i32(i32 %end, i32 1114111)
  %4 = select i1 %cmp.i1, i32 0, i32 %spec.select11
  %cmp.not12 = icmp ugt i32 %spec.select9, %4
  %cmp.not = and i1 %cmp.i, %cmp.not12
  br i1 %cmp.not, label %if.end8, label %if.then6

if.then6:                                         ; preds = %if.end
  %5 = add nuw nsw i32 %spec.select11, 1
  %start.addr.0 = select i1 %cmp.i, i32 %spec.select9, i32 0
  store i32 %start.addr.0, ptr %range, align 4
  %arrayinit.element = getelementptr inbounds i8, ptr %range, i64 4
  %add = select i1 %cmp.i1, i32 1, i32 %5
  store i32 %add, ptr %arrayinit.element, align 4
  %arrayinit.element7 = getelementptr inbounds i8, ptr %range, i64 8
  store i32 1114112, ptr %arrayinit.element7, align 4
  call void @_ZN6icu_7510UnicodeSet11exclusiveOrEPKiia(ptr noundef nonnull align 8 dereferenceable(200) %this, ptr noundef nonnull %range, i32 noundef 2, i8 noundef signext 0)
  br label %if.end8

if.end8:                                          ; preds = %if.then6, %if.end
  %pat.i = getelementptr inbounds i8, ptr %this, i64 64
  %6 = load ptr, ptr %pat.i, align 8
  %tobool.not.i = icmp eq ptr %6, null
  br i1 %tobool.not.i, label %return, label %if.then.i

if.then.i:                                        ; preds = %if.end8
  tail call void @uprv_free_75(ptr noundef nonnull %6)
  store ptr null, ptr %pat.i, align 8
  %patLen.i = getelementptr inbounds i8, ptr %this, i64 72
  store i32 0, ptr %patLen.i, align 8
  br label %return

return:                                           ; preds = %if.then.i, %if.end8, %entry, %lor.lhs.false
  ret ptr %this
}